target datalayout = "e-m:e-p270:32:32-p271:32:32-p272:64:64-i64:64-i128:128-f80:128-n8:16:32:64-S128"
target triple = "x86_64-pc-linux-gnu"

; Function Attrs: nounwind uwtable
define internal void @free_string_list(ptr noundef %0, i32 noundef %1) #0 {
  %3 = alloca ptr, align 8
  %4 = alloca i32, align 4
  %5 = alloca i32, align 4
  store ptr %0, ptr %3, align 8
  store i32 %1, ptr %4, align 4
  %6 = load ptr, ptr %3, align 8
  %7 = icmp ne ptr null, %6
  br i1 %7, label %8, label %36

8:                                                ; preds = %2
  store i32 0, ptr %5, align 4
  br label %9

9:                                                ; preds = %31, %8
  %10 = load i32, ptr %5, align 4
  %11 = load i32, ptr %4, align 4
  %12 = icmp ult i32 %10, %11
  br i1 %12, label %13, label %34

13:                                               ; preds = %9
  %14 = load ptr, ptr %3, align 8
  %15 = load i32, ptr %5, align 4
  %16 = zext i32 %15 to i64
  %17 = getelementptr inbounds ptr, ptr %14, i64 %16
  %18 = load ptr, ptr %17, align 8
  %19 = icmp ne ptr %18, null
  br i1 %19, label %20, label %30

20:                                               ; preds = %13
  %21 = load ptr, ptr %3, align 8
  %22 = load i32, ptr %5, align 4
  %23 = zext i32 %22 to i64
  %24 = getelementptr inbounds ptr, ptr %21, i64 %23
  %25 = load ptr, ptr %24, align 8
  call void @free(ptr noundef %25) #10
  %26 = load ptr, ptr %3, align 8
  %27 = load i32, ptr %5, align 4
  %28 = zext i32 %27 to i64
  %29 = getelementptr inbounds ptr, ptr %26, i64 %28
  store ptr null, ptr %29, align 8
  br label %30

30:                                               ; preds = %20, %13
  br label %31

31:                                               ; preds = %30
  %32 = load i32, ptr %5, align 4
  %33 = add i32 %32, 1
  store i32 %33, ptr %5, align 4
  br label %9

34:                                               ; preds = %9
  %35 = load ptr, ptr %3, align 8
  call void @free(ptr noundef %35) #10
  br label %36

36:                                               ; preds = %34, %2
  ret void
}