; Function Attrs: nounwind uwtable
define internal fastcc void @free_string_list(ptr noundef %0, i32 noundef %1) unnamed_addr #0 {
  %.not = icmp eq ptr %0, null
  br i1 %.not, label %7, label %.preheader

.preheader:                                       ; preds = %2
  %.not14 = icmp eq i32 %1, 0
  br i1 %.not14, label %._crit_edge, label %.lr.ph.preheader

.lr.ph.preheader:                                 ; preds = %.preheader
  %wide.trip.count = zext i32 %1 to i64
  br label %.lr.ph

.lr.ph:                                           ; preds = %.lr.ph.preheader, %6
  %indvars.iv = phi i64 [ 0, %.lr.ph.preheader ], [ %indvars.iv.next, %6 ]
  %3 = getelementptr inbounds ptr, ptr %0, i64 %indvars.iv
  %4 = load ptr, ptr %3, align 8
  %.not12 = icmp eq ptr %4, null
  br i1 %.not12, label %6, label %5

5:                                                ; preds = %.lr.ph
  tail call void @free(ptr noundef nonnull %4) #17
  store ptr null, ptr %3, align 8
  br label %6

6:                                                ; preds = %.lr.ph, %5
  %indvars.iv.next = add nuw nsw i64 %indvars.iv, 1
  %exitcond.not = icmp eq i64 %indvars.iv.next, %wide.trip.count
  br i1 %exitcond.not, label %._crit_edge, label %.lr.ph

._crit_edge:                                      ; preds = %6, %.preheader
  tail call void @free(ptr noundef nonnull %0) #17
  br label %7

7:                                                ; preds = %._crit_edge, %2
  ret void
}